; ModuleID = 'bench/mold/original/git-hash.ll'
source_filename = "bench/mold/original/git-hash.ll"
target datalayout = "e-m:e-p270:32:32-p271:32:32-p272:64:64-i64:64-i128:128-f80:128-n8:16:32:64-S128"
target triple = "x86_64-pc-linux-gnu"

%"struct.std::__cxx11::basic_string<char>::_Alloc_hider" = type { ptr }

$_ZNSt7__cxx1112basic_stringIcSt11char_traitsIcESaIcEED2Ev = comdat any

@_ZN4mold13mold_git_hashB5cxx11E = dso_local global { %"struct.std::__cxx11::basic_string<char>::_Alloc_hider", i64, { [16 x i8] } } { %"struct.std::__cxx11::basic_string<char>::_Alloc_hider" { ptr getelementptr (i8, ptr @_ZN4mold13mold_git_hashB5cxx11E, i64 16) }, i64 0, { [16 x i8] } zeroinitializer }, align 8
@__dso_handle = external hidden global i8
@llvm.global_ctors = appending global [1 x { i32, ptr, ptr }] [{ i32, ptr, ptr } { i32 65535, ptr @_GLOBAL__sub_I_git_hash.cc, ptr null }]

; Function Attrs: mustprogress nounwind
define linkonce_odr dso_local void @_ZNSt7__cxx1112basic_stringIcSt11char_traitsIcESaIcEED2Ev(ptr noundef nonnull align 8 dereferenceable(32) %0) unnamed_addr #0 comdat align 2 {
  %2 = load ptr, ptr %0, align 8, !tbaa !3
  %3 = getelementptr inbounds nuw i8, ptr %0, i64 16
  %4 = icmp eq ptr %2, %3
  br i1 %4, label %_ZNKSt7__cxx1112basic_stringIcSt11char_traitsIcESaIcEE11_M_is_localEv.exit.thread.i, label %_ZNKSt7__cxx1112basic_stringIcSt11char_traitsIcESaIcEE11_M_is_localEv.exit.i

_ZNKSt7__cxx1112basic_stringIcSt11char_traitsIcESaIcEE11_M_is_localEv.exit.thread.i: ; preds = %1
  %5 = getelementptr inbounds nuw i8, ptr %0, i64 8
  %6 = load i64, ptr %5, align 8, !tbaa !11
  %7 = icmp ult i64 %6, 16
  tail call void @llvm.assume(i1 %7)
  br label %_ZNSt7__cxx1112basic_stringIcSt11char_traitsIcESaIcEE10_M_disposeEv.exit

_ZNKSt7__cxx1112basic_stringIcSt11char_traitsIcESaIcEE11_M_is_localEv.exit.i: ; preds = %1
  %8 = load i64, ptr %3, align 8, !tbaa !12
  %9 = add i64 %8, 1
  tail call void @_ZdlPvm(ptr noundef %2, i64 noundef %9) #5
  br label %_ZNSt7__cxx1112basic_stringIcSt11char_traitsIcESaIcEE10_M_disposeEv.exit

_ZNSt7__cxx1112basic_stringIcSt11char_traitsIcESaIcEE10_M_disposeEv.exit: ; preds = %_ZNKSt7__cxx1112basic_stringIcSt11char_traitsIcESaIcEE11_M_is_localEv.exit.thread.i, %_ZNKSt7__cxx1112basic_stringIcSt11char_traitsIcESaIcEE11_M_is_localEv.exit.i
  ret void
}

; Function Attrs: nofree nounwind
declare i32 @__cxa_atexit(ptr, ptr, ptr) local_unnamed_addr #1

; Function Attrs: nobuiltin nounwind
declare void @_ZdlPvm(ptr noundef, i64 noundef) local_unnamed_addr #2

; Function Attrs: nofree nounwind
define internal void @_GLOBAL__sub_I_git_hash.cc() #3 section ".text.startup" {
  %1 = tail call i32 @__cxa_atexit(ptr nonnull @_ZNSt7__cxx1112basic_stringIcSt11char_traitsIcESaIcEED2Ev, ptr nonnull @_ZN4mold13mold_git_hashB5cxx11E, ptr nonnull @__dso_handle) #6
  ret void
}

; Function Attrs: nocallback nofree nosync nounwind willreturn memory(inaccessiblemem: write)
declare void @llvm.assume(i1 noundef) #4


!llvm.linker.options = !{}
!llvm.module.flags = !{!0, !1, !2}

!0 = !{i32 1, !"wchar_size", i32 4}
!1 = !{i32 8, !"PIC Level", i32 2}
!2 = !{i32 7, !"PIE Level", i32 2}
!3 = !{!4, !6, i64 0}
!4 = !{!"_ZTSNSt7__cxx1112basic_stringIcSt11char_traitsIcESaIcEEE", !5, i64 0, !10, i64 8, !8, i64 16}
!5 = !{!"_ZTSNSt7__cxx1112basic_stringIcSt11char_traitsIcESaIcEE12_Alloc_hiderE", !6, i64 0}
!6 = !{!"p1 omnipotent char", !7, i64 0}
!7 = !{!"any pointer", !8, i64 0}
!8 = !{!"omnipotent char", !9, i64 0}
!9 = !{!"Simple C++ TBAA"}
!10 = !{!"long", !8, i64 0}
!11 = !{!4, !10, i64 8}
!12 = !{!8, !8, i64 0}
